; Function Attrs: nounwind uwtable
define noalias nonnull ptr @l_Lean_filterFieldList___at_Lean_realizeGlobalConstCore___spec__1___lambda__1___boxed(ptr noundef %0, ptr noundef %1, ptr noundef %2, ptr noundef %3, ptr noundef %4, ptr noundef %5) local_unnamed_addr #0 {
  %7 = tail call ptr @l_List_mapTR_loop___at_Lean_filterFieldList___spec__2(ptr noundef %0, ptr noundef %1) #3
  tail call void @lean_inc_heartbeat() #3
  %8 = tail call noalias ptr @mi_malloc_small(i64 noundef 24) #3
  %9 = icmp eq ptr %8, null
  br i1 %9, label %10, label %l_Lean_filterFieldList___at_Lean_realizeGlobalConstCore___spec__1___lambda__1.exit

10:                                               ; preds = %6
  tail call void @lean_internal_panic_out_of_memory() #4
  unreachable

l_Lean_filterFieldList___at_Lean_realizeGlobalConstCore___spec__1___lambda__1.exit: ; preds = %6
  %11 = getelementptr inbounds nuw i8, ptr %8, i64 4
  store i32 1, ptr %8, align 4, !tbaa !8
  store i32 131096, ptr %11, align 4
  %12 = getelementptr inbounds nuw i8, ptr %8, i64 8
  store ptr %7, ptr %12, align 8, !tbaa !4
  %13 = getelementptr inbounds nuw i8, ptr %8, i64 16
  store ptr %5, ptr %13, align 8, !tbaa !4
  %14 = ptrtoint ptr %4 to i64
  %15 = and i64 %14, 1
  %.not = icmp eq i64 %15, 0
  br i1 %.not, label %16, label %lean_dec.exit11

16:                                               ; preds = %l_Lean_filterFieldList___at_Lean_realizeGlobalConstCore___spec__1___lambda__1.exit
  %17 = load i32, ptr %4, align 4, !tbaa !8
  %18 = icmp sgt i32 %17, 1
  br i1 %18, label %19, label %21, !prof !11

19:                                               ; preds = %16
  %20 = add nsw i32 %17, -1
  store i32 %20, ptr %4, align 4, !tbaa !8
  br label %lean_dec.exit11

21:                                               ; preds = %16
  %.not.i = icmp eq i32 %17, 0
  br i1 %.not.i, label %lean_dec.exit11, label %22

22:                                               ; preds = %21
  tail call void @lean_dec_ref_cold(ptr noundef nonnull %4) #3
  br label %lean_dec.exit11

lean_dec.exit11:                                  ; preds = %22, %21, %19, %l_Lean_filterFieldList___at_Lean_realizeGlobalConstCore___spec__1___lambda__1.exit
  %23 = ptrtoint ptr %3 to i64
  %24 = and i64 %23, 1
  %.not16 = icmp eq i64 %24, 0
  br i1 %.not16, label %25, label %lean_dec.exit10

25:                                               ; preds = %lean_dec.exit11
  %26 = load i32, ptr %3, align 4, !tbaa !8
  %27 = icmp sgt i32 %26, 1
  br i1 %27, label %28, label %30, !prof !11

28:                                               ; preds = %25
  %29 = add nsw i32 %26, -1
  store i32 %29, ptr %3, align 4, !tbaa !8
  br label %lean_dec.exit10

30:                                               ; preds = %25
  %.not.i12 = icmp eq i32 %26, 0
  br i1 %.not.i12, label %lean_dec.exit10, label %31

31:                                               ; preds = %30
  tail call void @lean_dec_ref_cold(ptr noundef nonnull %3) #3
  br label %lean_dec.exit10

lean_dec.exit10:                                  ; preds = %31, %30, %28, %lean_dec.exit11
  %32 = ptrtoint ptr %2 to i64
  %33 = and i64 %32, 1
  %.not17 = icmp eq i64 %33, 0
  br i1 %.not17, label %34, label %lean_dec.exit

34:                                               ; preds = %lean_dec.exit10
  %35 = load i32, ptr %2, align 4, !tbaa !8
  %36 = icmp sgt i32 %35, 1
  br i1 %36, label %37, label %39, !prof !11

37:                                               ; preds = %34
  %38 = add nsw i32 %35, -1
  store i32 %38, ptr %2, align 4, !tbaa !8
  br label %lean_dec.exit

39:                                               ; preds = %34
  %.not.i14 = icmp eq i32 %35, 0
  br i1 %.not.i14, label %lean_dec.exit, label %40

40:                                               ; preds = %39
  tail call void @lean_dec_ref_cold(ptr noundef nonnull %2) #3
  br label %lean_dec.exit

lean_dec.exit:                                    ; preds = %40, %39, %37, %lean_dec.exit10
  ret ptr %8
}